; Function Attrs: mustprogress uwtable
define void @_ZN6casadi19DeserializingStream6unpackERx(ptr nocapture noundef nonnull readonly align 8 dereferenceable(41) %0, ptr nocapture noundef nonnull writeonly align 8 dereferenceable(8) %1) local_unnamed_addr #3 align 2 {
  %3 = alloca i8, align 1
  %4 = alloca i64, align 8
  tail call void @_ZN6casadi19DeserializingStream17assert_decorationEc(ptr noundef nonnull align 8 dereferenceable(41) %0, i8 noundef signext 74)
  %5 = getelementptr inbounds i8, ptr %0, i64 32
  br label %6

6:                                                ; preds = %2, %6
  %indvars.iv = phi i64 [ 0, %2 ], [ %indvars.iv.next, %6 ]
  %7 = getelementptr inbounds i8, ptr %4, i64 %indvars.iv
  call void @llvm.lifetime.start.p0(i64 1, ptr nonnull %3)
  %8 = load ptr, ptr %5, align 8
  %9 = call noundef nonnull align 8 dereferenceable(16) ptr @_ZNSi3getERc(ptr noundef nonnull align 8 dereferenceable(16) %8, ptr noundef nonnull align 1 dereferenceable(1) %7)
  %10 = load ptr, ptr %5, align 8
  %11 = call noundef nonnull align 8 dereferenceable(16) ptr @_ZNSi3getERc(ptr noundef nonnull align 8 dereferenceable(16) %10, ptr noundef nonnull align 1 dereferenceable(1) %3)
  %12 = load i8, ptr %7, align 1
  %13 = load i8, ptr %3, align 1
  %14 = shl i8 %13, 4
  %15 = add i8 %12, -113
  %16 = add i8 %15, %14
  store i8 %16, ptr %7, align 1
  call void @llvm.lifetime.end.p0(i64 1, ptr nonnull %3)
  %indvars.iv.next = add nuw nsw i64 %indvars.iv, 1
  %exitcond.not = icmp eq i64 %indvars.iv.next, 8
  br i1 %exitcond.not, label %17, label %6, !llvm.loop !7

17:                                               ; preds = %6
  %18 = load i64, ptr %4, align 8
  store i64 %18, ptr %1, align 8
  ret void
}